; Function Attrs: mustprogress nounwind uwtable
define hidden noundef zeroext i1 @_ZNK7XDriver7is_busyEv(ptr noundef nonnull align 8 dereferenceable(1216) %0) local_unnamed_addr #4 align 2 {
  %2 = getelementptr inbounds i8, ptr %0, i64 920
  tail call void @_ZN5Mutex28lock_without_safepoint_checkEv(ptr noundef nonnull align 8 dereferenceable(104) %2) #12
  %3 = getelementptr inbounds i8, ptr %0, i64 1024
  %4 = load i8, ptr %3, align 8
  %5 = trunc i8 %4 to i1
  tail call void @_ZN5Mutex6unlockEv(ptr noundef nonnull align 8 dereferenceable(104) %2) #12
  ret i1 %5
}